target datalayout = "e-m:e-p270:32:32-p271:32:32-p272:64:64-i64:64-i128:128-f80:128-n8:16:32:64-S128"
target triple = "x86_64-pc-linux-gnu"

%struct.ZSTD_customMem = type { ptr, ptr, ptr }
%struct.POOL_ctx_s = type { %struct.ZSTD_customMem, ptr, i64, i64, ptr, i64, i64, i64, i64, i32, %union.pthread_mutex_t, %union.pthread_cond_t, %union.pthread_cond_t, i32 }
%union.pthread_mutex_t = type { %struct.__pthread_mutex_s }
%struct.__pthread_mutex_s = type { i32, i32, i32, i32, i32, i16, i16, %struct.__pthread_internal_list }
%struct.__pthread_internal_list = type { ptr, ptr }
%union.pthread_cond_t = type { %struct.__pthread_cond_s }
%struct.__pthread_cond_s = type { %union.__atomic_wide_counter, %union.__atomic_wide_counter, [2 x i32], [2 x i32], i32, i32, [2 x i32] }
%union.__atomic_wide_counter = type { i64 }
%struct.POOL_job_s = type { ptr, ptr }

; Function Attrs: nounwind uwtable
define internal void @POOL_add_internal(ptr noundef %0, ptr noundef %1, ptr noundef %2) #0 {
  %4 = alloca ptr, align 8
  %5 = alloca ptr, align 8
  %6 = alloca ptr, align 8
  %7 = alloca %struct.POOL_job_s, align 8
  %8 = alloca i32, align 4
  store ptr %0, ptr %4, align 8, !tbaa !7
  store ptr %1, ptr %5, align 8, !tbaa !26
  store ptr %2, ptr %6, align 8, !tbaa !26
  call void @llvm.lifetime.start.p0(i64 16, ptr %7) #8
  %9 = load ptr, ptr %5, align 8, !tbaa !26
  %10 = getelementptr inbounds nuw %struct.POOL_job_s, ptr %7, i32 0, i32 0
  store ptr %9, ptr %10, align 8, !tbaa !34
  %11 = load ptr, ptr %6, align 8, !tbaa !26
  %12 = getelementptr inbounds nuw %struct.POOL_job_s, ptr %7, i32 0, i32 1
  store ptr %11, ptr %12, align 8, !tbaa !36
  %13 = load ptr, ptr %4, align 8, !tbaa !7
  %14 = getelementptr inbounds nuw %struct.POOL_ctx_s, ptr %13, i32 0, i32 13
  %15 = load i32, ptr %14, align 8, !tbaa !22
  %16 = icmp ne i32 %15, 0
  br i1 %16, label %17, label %18

17:                                               ; preds = %3
  store i32 1, ptr %8, align 4
  br label %41

18:                                               ; preds = %3
  %19 = load ptr, ptr %4, align 8, !tbaa !7
  %20 = getelementptr inbounds nuw %struct.POOL_ctx_s, ptr %19, i32 0, i32 9
  store i32 0, ptr %20, align 8, !tbaa !20
  %21 = load ptr, ptr %4, align 8, !tbaa !7
  %22 = getelementptr inbounds nuw %struct.POOL_ctx_s, ptr %21, i32 0, i32 4
  %23 = load ptr, ptr %22, align 8, !tbaa !16
  %24 = load ptr, ptr %4, align 8, !tbaa !7
  %25 = getelementptr inbounds nuw %struct.POOL_ctx_s, ptr %24, i32 0, i32 6
  %26 = load i64, ptr %25, align 8, !tbaa !18
  %27 = getelementptr inbounds nuw %struct.POOL_job_s, ptr %23, i64 %26
  call void @llvm.memcpy.p0.p0.i64(ptr align 8 %27, ptr align 8 %7, i64 16, i1 false), !tbaa.struct !33
  %28 = load ptr, ptr %4, align 8, !tbaa !7
  %29 = getelementptr inbounds nuw %struct.POOL_ctx_s, ptr %28, i32 0, i32 6
  %30 = load i64, ptr %29, align 8, !tbaa !18
  %31 = add i64 %30, 1
  %32 = load ptr, ptr %4, align 8, !tbaa !7
  %33 = getelementptr inbounds nuw %struct.POOL_ctx_s, ptr %32, i32 0, i32 7
  %34 = load i64, ptr %33, align 8, !tbaa !10
  %35 = urem i64 %31, %34
  %36 = load ptr, ptr %4, align 8, !tbaa !7
  %37 = getelementptr inbounds nuw %struct.POOL_ctx_s, ptr %36, i32 0, i32 6
  store i64 %35, ptr %37, align 8, !tbaa !18
  %38 = load ptr, ptr %4, align 8, !tbaa !7
  %39 = getelementptr inbounds nuw %struct.POOL_ctx_s, ptr %38, i32 0, i32 12
  %40 = call i32 @pthread_cond_signal(ptr noundef %39) #8
  store i32 0, ptr %8, align 4
  br label %41

41:                                               ; preds = %18, %17
  call void @llvm.lifetime.end.p0(i64 16, ptr %7) #8
  %42 = load i32, ptr %8, align 4
  switch i32 %42, label %44 [
    i32 0, label %43
    i32 1, label %43
  ]

43:                                               ; preds = %41, %41
  ret void

44:                                               ; preds = %41
  unreachable
}

; Function Attrs: nounwind uwtable
define internal i32 @isQueueFull(ptr noundef %0) #0 {
  %2 = alloca i32, align 4
  %3 = alloca ptr, align 8
  store ptr %0, ptr %3, align 8, !tbaa !7
  %4 = load ptr, ptr %3, align 8, !tbaa !7
  %5 = getelementptr inbounds nuw %struct.POOL_ctx_s, ptr %4, i32 0, i32 7
  %6 = load i64, ptr %5, align 8, !tbaa !10
  %7 = icmp ugt i64 %6, 1
  br i1 %7, label %8, label %22

8:                                                ; preds = %1
  %9 = load ptr, ptr %3, align 8, !tbaa !7
  %10 = getelementptr inbounds nuw %struct.POOL_ctx_s, ptr %9, i32 0, i32 5
  %11 = load i64, ptr %10, align 8, !tbaa !17
  %12 = load ptr, ptr %3, align 8, !tbaa !7
  %13 = getelementptr inbounds nuw %struct.POOL_ctx_s, ptr %12, i32 0, i32 6
  %14 = load i64, ptr %13, align 8, !tbaa !18
  %15 = add i64 %14, 1
  %16 = load ptr, ptr %3, align 8, !tbaa !7
  %17 = getelementptr inbounds nuw %struct.POOL_ctx_s, ptr %16, i32 0, i32 7
  %18 = load i64, ptr %17, align 8, !tbaa !10
  %19 = urem i64 %15, %18
  %20 = icmp eq i64 %11, %19
  %21 = zext i1 %20 to i32
  store i32 %21, ptr %2, align 4
  br label %39

22:                                               ; preds = %1
  %23 = load ptr, ptr %3, align 8, !tbaa !7
  %24 = getelementptr inbounds nuw %struct.POOL_ctx_s, ptr %23, i32 0, i32 8
  %25 = load i64, ptr %24, align 8, !tbaa !19
  %26 = load ptr, ptr %3, align 8, !tbaa !7
  %27 = getelementptr inbounds nuw %struct.POOL_ctx_s, ptr %26, i32 0, i32 3
  %28 = load i64, ptr %27, align 8, !tbaa !29
  %29 = icmp eq i64 %25, %28
  br i1 %29, label %36, label %30

30:                                               ; preds = %22
  %31 = load ptr, ptr %3, align 8, !tbaa !7
  %32 = getelementptr inbounds nuw %struct.POOL_ctx_s, ptr %31, i32 0, i32 9
  %33 = load i32, ptr %32, align 8, !tbaa !20
  %34 = icmp ne i32 %33, 0
  %35 = xor i1 %34, true
  br label %36

36:                                               ; preds = %30, %22
  %37 = phi i1 [ true, %22 ], [ %35, %30 ]
  %38 = zext i1 %37 to i32
  store i32 %38, ptr %2, align 4
  br label %39

39:                                               ; preds = %36, %8
  %40 = load i32, ptr %2, align 4
  ret i32 %40
}

; Function Attrs: nounwind uwtable
define i32 @POOL_tryAdd(ptr noundef %0, ptr noundef %1, ptr noundef %2) #0 {
  %4 = alloca i32, align 4
  %5 = alloca ptr, align 8
  %6 = alloca ptr, align 8
  %7 = alloca ptr, align 8
  store ptr %0, ptr %5, align 8, !tbaa !7
  store ptr %1, ptr %6, align 8, !tbaa !26
  store ptr %2, ptr %7, align 8, !tbaa !26
  %8 = load ptr, ptr %5, align 8, !tbaa !7
  %9 = getelementptr inbounds nuw %struct.POOL_ctx_s, ptr %8, i32 0, i32 10
  %10 = call i32 @pthread_mutex_lock(ptr noundef %9) #8
  %11 = load ptr, ptr %5, align 8, !tbaa !7
  %12 = call i32 @isQueueFull(ptr noundef %11)
  %13 = icmp ne i32 %12, 0
  br i1 %13, label %14, label %18

14:                                               ; preds = %3
  %15 = load ptr, ptr %5, align 8, !tbaa !7
  %16 = getelementptr inbounds nuw %struct.POOL_ctx_s, ptr %15, i32 0, i32 10
  %17 = call i32 @pthread_mutex_unlock(ptr noundef %16) #8
  store i32 0, ptr %4, align 4
  br label %25

18:                                               ; preds = %3
  %19 = load ptr, ptr %5, align 8, !tbaa !7
  %20 = load ptr, ptr %6, align 8, !tbaa !26
  %21 = load ptr, ptr %7, align 8, !tbaa !26
  call void @POOL_add_internal(ptr noundef %19, ptr noundef %20, ptr noundef %21)
  %22 = load ptr, ptr %5, align 8, !tbaa !7
  %23 = getelementptr inbounds nuw %struct.POOL_ctx_s, ptr %22, i32 0, i32 10
  %24 = call i32 @pthread_mutex_unlock(ptr noundef %23) #8
  store i32 1, ptr %4, align 4
  br label %25

25:                                               ; preds = %18, %14
  %26 = load i32, ptr %4, align 4
  ret i32 %26
}