; Function Attrs: nounwind uwtable
define range(i32 0, 2) i32 @POOL_tryAdd(ptr noundef %0, ptr noundef %1, ptr noundef %2) local_unnamed_addr #0 {
  %4 = getelementptr inbounds nuw i8, ptr %0, i64 96
  %5 = tail call i32 @pthread_mutex_lock(ptr noundef nonnull %4) #9
  %6 = getelementptr inbounds nuw i8, ptr %0, i64 72
  %7 = load i64, ptr %6, align 8, !tbaa !8
  %8 = icmp ugt i64 %7, 1
  br i1 %8, label %9, label %17

9:                                                ; preds = %3
  %10 = getelementptr inbounds nuw i8, ptr %0, i64 56
  %11 = load i64, ptr %10, align 8, !tbaa !28
  %12 = getelementptr inbounds nuw i8, ptr %0, i64 64
  %13 = load i64, ptr %12, align 8, !tbaa !29
  %14 = add i64 %13, 1
  %15 = urem i64 %14, %7
  %16 = icmp eq i64 %11, %15
  br i1 %16, label %isQueueFull.exit.thread, label %25

17:                                               ; preds = %3
  %18 = getelementptr inbounds nuw i8, ptr %0, i64 80
  %19 = load i64, ptr %18, align 8, !tbaa !15
  %20 = getelementptr inbounds nuw i8, ptr %0, i64 40
  %21 = load i64, ptr %20, align 8, !tbaa !24
  %22 = icmp eq i64 %19, %21
  br i1 %22, label %isQueueFull.exit.thread, label %isQueueFull.exit

isQueueFull.exit:                                 ; preds = %17
  %23 = getelementptr inbounds nuw i8, ptr %0, i64 88
  %24 = load i32, ptr %23, align 8, !tbaa !16
  %.not.i = icmp eq i32 %24, 0
  br i1 %.not.i, label %isQueueFull.exit.thread, label %25

25:                                               ; preds = %9, %isQueueFull.exit
  %26 = getelementptr inbounds nuw i8, ptr %0, i64 232
  %27 = load i32, ptr %26, align 8, !tbaa !17
  %.not.i7 = icmp eq i32 %27, 0
  br i1 %.not.i7, label %28, label %isQueueFull.exit.thread

28:                                               ; preds = %25
  %29 = getelementptr inbounds nuw i8, ptr %0, i64 88
  store i32 0, ptr %29, align 8, !tbaa !16
  %30 = getelementptr inbounds nuw i8, ptr %0, i64 48
  %31 = load ptr, ptr %30, align 8, !tbaa !14
  %32 = getelementptr inbounds nuw i8, ptr %0, i64 64
  %33 = load i64, ptr %32, align 8, !tbaa !29
  %34 = getelementptr inbounds nuw %struct.POOL_job_s, ptr %31, i64 %33
  store ptr %1, ptr %34, align 8, !tbaa !21
  %.sroa.4.0..sroa_idx.i = getelementptr inbounds nuw i8, ptr %34, i64 8
  store ptr %2, ptr %.sroa.4.0..sroa_idx.i, align 8, !tbaa !21
  %35 = add i64 %33, 1
  %36 = urem i64 %35, %7
  store i64 %36, ptr %32, align 8, !tbaa !29
  %37 = getelementptr inbounds nuw i8, ptr %0, i64 184
  %38 = tail call i32 @pthread_cond_signal(ptr noundef nonnull %37) #9
  br label %isQueueFull.exit.thread

isQueueFull.exit.thread:                          ; preds = %28, %25, %isQueueFull.exit, %17, %9
  %.0 = phi i32 [ 0, %9 ], [ 0, %17 ], [ 0, %isQueueFull.exit ], [ 1, %25 ], [ 1, %28 ]
  %39 = tail call i32 @pthread_mutex_unlock(ptr noundef nonnull %4) #9
  ret i32 %.0
}